target datalayout = "e-m:e-p270:32:32-p271:32:32-p272:64:64-i64:64-i128:128-f80:128-n8:16:32:64-S128"
target triple = "x86_64-pc-linux-gnu"

%struct.X509_algor_st = type { ptr, ptr }
%struct.asn1_string_st = type { i32, i32, ptr, i64 }
%struct.X509_acert_st = type { ptr, %struct.X509_algor_st, %struct.asn1_string_st }
%struct.X509_acert_info_st = type { %struct.asn1_string_st, %struct.X509_holder_st, %struct.X509_acert_issuer_st, %struct.X509_algor_st, %struct.asn1_string_st, %struct.X509_val_st, ptr, ptr, ptr }
%struct.X509_holder_st = type { ptr, ptr, ptr }
%struct.X509_acert_issuer_st = type { i32, %union.anon }
%union.anon = type { ptr }
%struct.X509_val_st = type { ptr, ptr }
%struct.X509_acert_issuer_v2form_st = type { ptr, ptr, ptr }

@.str = private unnamed_addr constant [34 x i8] c"../openssl/crypto/x509/x509aset.c\00", align 1
@__func__.X509_ACERT_set1_issuerName = private unnamed_addr constant [27 x i8] c"X509_ACERT_set1_issuerName\00", align 1

; Function Attrs: nounwind uwtable
define i32 @X509_ACERT_set1_issuerName(ptr noundef %0, ptr noundef %1) #0 {
  %3 = alloca i32, align 4
  %4 = alloca ptr, align 8
  %5 = alloca ptr, align 8
  %6 = alloca ptr, align 8
  %7 = alloca i32, align 4
  store ptr %0, ptr %4, align 8, !tbaa !29
  store ptr %1, ptr %5, align 8, !tbaa !16
  call void @llvm.lifetime.start.p0(i64 8, ptr %6) #4
  %8 = load ptr, ptr %4, align 8, !tbaa !29
  %9 = getelementptr inbounds nuw %struct.X509_acert_st, ptr %8, i32 0, i32 0
  %10 = load ptr, ptr %9, align 8, !tbaa !32
  %11 = getelementptr inbounds nuw %struct.X509_acert_info_st, ptr %10, i32 0, i32 2
  %12 = getelementptr inbounds nuw %struct.X509_acert_issuer_st, ptr %11, i32 0, i32 1
  %13 = load ptr, ptr %12, align 8, !tbaa !47
  store ptr %13, ptr %6, align 8, !tbaa !48
  %14 = load ptr, ptr %6, align 8, !tbaa !48
  %15 = icmp eq ptr %14, null
  br i1 %15, label %16, label %33

16:                                               ; preds = %2
  %17 = call ptr @X509_ACERT_ISSUER_V2FORM_new()
  store ptr %17, ptr %6, align 8, !tbaa !48
  %18 = load ptr, ptr %6, align 8, !tbaa !48
  %19 = icmp eq ptr %18, null
  br i1 %19, label %20, label %21

20:                                               ; preds = %16
  call void @ERR_new()
  call void @ERR_set_debug(ptr noundef @.str, i32 noundef 154, ptr noundef @__func__.X509_ACERT_set1_issuerName)
  call void (i32, i32, ptr, ...) @ERR_set_error(i32 noundef 11, i32 noundef 524301, ptr noundef null)
  store i32 0, ptr %3, align 4
  store i32 1, ptr %7, align 4
  br label %38

21:                                               ; preds = %16
  %22 = load ptr, ptr %6, align 8, !tbaa !48
  %23 = load ptr, ptr %4, align 8, !tbaa !29
  %24 = getelementptr inbounds nuw %struct.X509_acert_st, ptr %23, i32 0, i32 0
  %25 = load ptr, ptr %24, align 8, !tbaa !32
  %26 = getelementptr inbounds nuw %struct.X509_acert_info_st, ptr %25, i32 0, i32 2
  %27 = getelementptr inbounds nuw %struct.X509_acert_issuer_st, ptr %26, i32 0, i32 1
  store ptr %22, ptr %27, align 8, !tbaa !47
  %28 = load ptr, ptr %4, align 8, !tbaa !29
  %29 = getelementptr inbounds nuw %struct.X509_acert_st, ptr %28, i32 0, i32 0
  %30 = load ptr, ptr %29, align 8, !tbaa !32
  %31 = getelementptr inbounds nuw %struct.X509_acert_info_st, ptr %30, i32 0, i32 2
  %32 = getelementptr inbounds nuw %struct.X509_acert_issuer_st, ptr %31, i32 0, i32 0
  store i32 1, ptr %32, align 8, !tbaa !50
  br label %33

33:                                               ; preds = %21, %2
  %34 = load ptr, ptr %6, align 8, !tbaa !48
  %35 = getelementptr inbounds nuw %struct.X509_acert_issuer_v2form_st, ptr %34, i32 0, i32 0
  %36 = load ptr, ptr %5, align 8, !tbaa !16
  %37 = call i32 @replace_dirName(ptr noundef %35, ptr noundef %36)
  store i32 %37, ptr %3, align 4
  store i32 1, ptr %7, align 4
  br label %38

38:                                               ; preds = %33, %20
  call void @llvm.lifetime.end.p0(i64 8, ptr %6) #4
  %39 = load i32, ptr %3, align 4
  ret i32 %39
}