; Function Attrs: nounwind uwtable
define range(i32 0, 2) i32 @X509_ACERT_set1_issuerName(ptr noundef readonly captures(none) %0, ptr noundef %1) local_unnamed_addr #0 {
  %3 = load ptr, ptr %0, align 8, !tbaa !15
  %4 = getelementptr inbounds nuw i8, ptr %3, i64 56
  %5 = load ptr, ptr %4, align 8, !tbaa !32
  %6 = icmp eq ptr %5, null
  br i1 %6, label %7, label %16

7:                                                ; preds = %2
  %8 = tail call ptr @X509_ACERT_ISSUER_V2FORM_new() #2
  %9 = icmp eq ptr %8, null
  br i1 %9, label %10, label %11

10:                                               ; preds = %7
  tail call void @ERR_new() #2
  tail call void @ERR_set_debug(ptr noundef nonnull @.str, i32 noundef 154, ptr noundef nonnull @__func__.X509_ACERT_set1_issuerName) #2
  tail call void (i32, i32, ptr, ...) @ERR_set_error(i32 noundef 11, i32 noundef 524301, ptr noundef null) #2
  br label %18

11:                                               ; preds = %7
  %12 = load ptr, ptr %0, align 8, !tbaa !15
  %13 = getelementptr inbounds nuw i8, ptr %12, i64 56
  store ptr %8, ptr %13, align 8, !tbaa !32
  %14 = load ptr, ptr %0, align 8, !tbaa !15
  %15 = getelementptr inbounds nuw i8, ptr %14, i64 48
  store i32 1, ptr %15, align 8, !tbaa !33
  br label %16

16:                                               ; preds = %11, %2
  %.0 = phi ptr [ %8, %11 ], [ %5, %2 ]
  %17 = tail call fastcc i32 @replace_dirName(ptr noundef nonnull %.0, ptr noundef %1)
  br label %18

18:                                               ; preds = %16, %10
  %.08 = phi i32 [ 0, %10 ], [ %17, %16 ]
  ret i32 %.08
}